; Function Attrs: mustprogress uwtable
define hidden void @_ZN4lean12type_checkerC2ERNS0_5stateERKNS_9local_ctxENS_17definition_safetyE(ptr noundef nonnull writeonly align 8 captures(none) dereferenceable(48) initializes((0, 1), (8, 36), (40, 48)) %0, ptr noundef nonnull align 8 dereferenceable(392) %1, ptr noundef nonnull readonly align 8 captures(none) dereferenceable(8) %2, i32 noundef %3) unnamed_addr #0 align 2 {
  store i8 0, ptr %0, align 8, !tbaa !443
  %5 = getelementptr inbounds nuw i8, ptr %0, i64 8
  store ptr %1, ptr %5, align 8, !tbaa !31
  %6 = getelementptr inbounds nuw i8, ptr %0, i64 16
  store ptr null, ptr %6, align 8, !tbaa !211
  %7 = getelementptr inbounds nuw i8, ptr %0, i64 24
  %8 = load ptr, ptr %2, align 8, !tbaa !3
  store ptr %8, ptr %7, align 8, !tbaa !3
  %9 = ptrtoint ptr %8 to i64
  %10 = and i64 %9, 1
  %.not.i.i.i = icmp eq i64 %10, 0
  br i1 %.not.i.i.i, label %11, label %_ZN4lean9local_ctxC2ERKS0_.exit

11:                                               ; preds = %4
  %.val.i.i.i.i = load i32, ptr %8, align 4, !tbaa !8
  %12 = icmp sgt i32 %.val.i.i.i.i, 0
  br i1 %12, label %13, label %15, !prof !11

13:                                               ; preds = %11
  %14 = add nuw nsw i32 %.val.i.i.i.i, 1
  store i32 %14, ptr %8, align 4, !tbaa !8
  br label %_ZN4lean9local_ctxC2ERKS0_.exit

15:                                               ; preds = %11
  %.not.i.i.i.i = icmp eq i32 %.val.i.i.i.i, 0
  br i1 %.not.i.i.i.i, label %_ZN4lean9local_ctxC2ERKS0_.exit, label %16

16:                                               ; preds = %15
  tail call void @lean_inc_ref_cold(ptr noundef nonnull %8)
  br label %_ZN4lean9local_ctxC2ERKS0_.exit

_ZN4lean9local_ctxC2ERKS0_.exit:                  ; preds = %4, %13, %15, %16
  %17 = getelementptr inbounds nuw i8, ptr %0, i64 32
  store i32 %3, ptr %17, align 8, !tbaa !444
  %18 = getelementptr inbounds nuw i8, ptr %0, i64 40
  store ptr null, ptr %18, align 8, !tbaa !77
  ret void
}